target datalayout = "e-m:e-p270:32:32-p271:32:32-p272:64:64-i64:64-i128:128-f80:128-n8:16:32:64-S128"
target triple = "x86_64-pc-linux-gnu"

@.str = private unnamed_addr constant [10 x i8] c"coroutine\00", align 1
@.str.1 = private unnamed_addr constant [3 x i8] c"_G\00", align 1
@.str.2 = private unnamed_addr constant [8 x i8] c"Lua 5.1\00", align 1
@.str.3 = private unnamed_addr constant [9 x i8] c"_VERSION\00", align 1
@.str.4 = private unnamed_addr constant [7 x i8] c"ipairs\00", align 1
@.str.5 = private unnamed_addr constant [6 x i8] c"pairs\00", align 1
@.str.6 = private unnamed_addr constant [3 x i8] c"kv\00", align 1
@.str.7 = private unnamed_addr constant [7 x i8] c"__mode\00", align 1
@.str.8 = private unnamed_addr constant [9 x i8] c"newproxy\00", align 1

; Function Attrs: nounwind uwtable
define internal void @auxopen(ptr noundef %0, ptr noundef %1, ptr noundef %2, ptr noundef %3) #0 {
  %5 = alloca ptr, align 8
  %6 = alloca ptr, align 8
  %7 = alloca ptr, align 8
  %8 = alloca ptr, align 8
  store ptr %0, ptr %5, align 8, !tbaa !4
  store ptr %1, ptr %6, align 8, !tbaa !9
  store ptr %2, ptr %7, align 8, !tbaa !11
  store ptr %3, ptr %8, align 8, !tbaa !11
  %9 = load ptr, ptr %5, align 8, !tbaa !4
  %10 = load ptr, ptr %8, align 8, !tbaa !11
  call void @lua_pushcclosure(ptr noundef %9, ptr noundef %10, i32 noundef 0)
  %11 = load ptr, ptr %5, align 8, !tbaa !4
  %12 = load ptr, ptr %7, align 8, !tbaa !11
  call void @lua_pushcclosure(ptr noundef %11, ptr noundef %12, i32 noundef 1)
  %13 = load ptr, ptr %5, align 8, !tbaa !4
  %14 = load ptr, ptr %6, align 8, !tbaa !9
  call void @lua_setfield(ptr noundef %13, i32 noundef -2, ptr noundef %14)
  ret void
}

; Function Attrs: nounwind uwtable
define internal void @base_open(ptr noundef %0) #0 {
  %2 = alloca ptr, align 8
  store ptr %0, ptr %2, align 8, !tbaa !4
  %3 = load ptr, ptr %2, align 8, !tbaa !4
  call void @lua_pushvalue(ptr noundef %3, i32 noundef -10002)
  %4 = load ptr, ptr %2, align 8, !tbaa !4
  call void @lua_setfield(ptr noundef %4, i32 noundef -10002, ptr noundef @.str.1)
  %5 = load ptr, ptr %2, align 8, !tbaa !4
  call void @luaL_register(ptr noundef %5, ptr noundef @.str.1, ptr noundef @base_funcs)
  %6 = load ptr, ptr %2, align 8, !tbaa !4
  call void @lua_pushlstring(ptr noundef %6, ptr noundef @.str.2, i64 noundef 7)
  %7 = load ptr, ptr %2, align 8, !tbaa !4
  call void @lua_setfield(ptr noundef %7, i32 noundef -10002, ptr noundef @.str.3)
  %8 = load ptr, ptr %2, align 8, !tbaa !4
  call void @auxopen(ptr noundef %8, ptr noundef @.str.4, ptr noundef @luaB_ipairs, ptr noundef @ipairsaux)
  %9 = load ptr, ptr %2, align 8, !tbaa !4
  call void @auxopen(ptr noundef %9, ptr noundef @.str.5, ptr noundef @luaB_pairs, ptr noundef @luaB_next)
  %10 = load ptr, ptr %2, align 8, !tbaa !4
  call void @lua_createtable(ptr noundef %10, i32 noundef 0, i32 noundef 1)
  %11 = load ptr, ptr %2, align 8, !tbaa !4
  call void @lua_pushvalue(ptr noundef %11, i32 noundef -1)
  %12 = load ptr, ptr %2, align 8, !tbaa !4
  %13 = call i32 @lua_setmetatable(ptr noundef %12, i32 noundef -2)
  %14 = load ptr, ptr %2, align 8, !tbaa !4
  call void @lua_pushlstring(ptr noundef %14, ptr noundef @.str.6, i64 noundef 2)
  %15 = load ptr, ptr %2, align 8, !tbaa !4
  call void @lua_setfield(ptr noundef %15, i32 noundef -2, ptr noundef @.str.7)
  %16 = load ptr, ptr %2, align 8, !tbaa !4
  call void @lua_pushcclosure(ptr noundef %16, ptr noundef @luaB_newproxy, i32 noundef 1)
  %17 = load ptr, ptr %2, align 8, !tbaa !4
  call void @lua_setfield(ptr noundef %17, i32 noundef -10002, ptr noundef @.str.8)
  ret void
}

; Function Attrs: nounwind uwtable
define dso_local i32 @luaopen_base(ptr noundef %0) #0 {
  %2 = alloca ptr, align 8
  store ptr %0, ptr %2, align 8, !tbaa !4
  %3 = load ptr, ptr %2, align 8, !tbaa !4
  call void @base_open(ptr noundef %3)
  %4 = load ptr, ptr %2, align 8, !tbaa !4
  call void @luaL_register(ptr noundef %4, ptr noundef @.str, ptr noundef @co_funcs)
  ret i32 2
}