; Function Attrs: nounwind uwtable
define dso_local noundef i32 @luaopen_base(ptr noundef %0) local_unnamed_addr #0 {
  tail call void @lua_pushvalue(ptr noundef %0, i32 noundef -10002) #8
  tail call void @lua_setfield(ptr noundef %0, i32 noundef -10002, ptr noundef nonnull @.str.1) #8
  tail call void @luaL_register(ptr noundef %0, ptr noundef nonnull @.str.1, ptr noundef nonnull @base_funcs) #8
  tail call void @lua_pushlstring(ptr noundef %0, ptr noundef nonnull @.str.2, i64 noundef 7) #8
  tail call void @lua_setfield(ptr noundef %0, i32 noundef -10002, ptr noundef nonnull @.str.3) #8
  tail call void @lua_pushcclosure(ptr noundef %0, ptr noundef nonnull @ipairsaux, i32 noundef 0) #8
  tail call void @lua_pushcclosure(ptr noundef %0, ptr noundef nonnull @luaB_ipairs, i32 noundef 1) #8
  tail call void @lua_setfield(ptr noundef %0, i32 noundef -2, ptr noundef nonnull @.str.4) #8
  tail call void @lua_pushcclosure(ptr noundef %0, ptr noundef nonnull @luaB_next, i32 noundef 0) #8
  tail call void @lua_pushcclosure(ptr noundef %0, ptr noundef nonnull @luaB_pairs, i32 noundef 1) #8
  tail call void @lua_setfield(ptr noundef %0, i32 noundef -2, ptr noundef nonnull @.str.5) #8
  tail call void @lua_createtable(ptr noundef %0, i32 noundef 0, i32 noundef 1) #8
  tail call void @lua_pushvalue(ptr noundef %0, i32 noundef -1) #8
  %2 = tail call i32 @lua_setmetatable(ptr noundef %0, i32 noundef -2) #8
  tail call void @lua_pushlstring(ptr noundef %0, ptr noundef nonnull @.str.6, i64 noundef 2) #8
  tail call void @lua_setfield(ptr noundef %0, i32 noundef -2, ptr noundef nonnull @.str.7) #8
  tail call void @lua_pushcclosure(ptr noundef %0, ptr noundef nonnull @luaB_newproxy, i32 noundef 1) #8
  tail call void @lua_setfield(ptr noundef %0, i32 noundef -10002, ptr noundef nonnull @.str.8) #8
  tail call void @luaL_register(ptr noundef %0, ptr noundef nonnull @.str, ptr noundef nonnull @co_funcs) #8
  ret i32 2
}